; Function Attrs: nounwind uwtable
define dso_local noundef ptr @new_form(ptr noundef %0) local_unnamed_addr #0 {
  %2 = tail call noalias dereferenceable_or_null(128) ptr @malloc(i64 noundef 128) #9
  %.not = icmp eq ptr %2, null
  br i1 %.not, label %._crit_edge, label %3

._crit_edge:                                      ; preds = %1
  %.pre = tail call ptr @__errno_location() #10
  br label %37

3:                                                ; preds = %1
  %4 = load ptr, ptr @_nc_Default_Form, align 8
  tail call void @llvm.memcpy.p0.p0.i64(ptr noundef nonnull align 8 dereferenceable(128) %2, ptr noundef nonnull align 8 dereferenceable(128) %4, i64 128, i1 false)
  %5 = tail call fastcc i32 @Connect_Fields(ptr noundef nonnull %2, ptr noundef %0)
  %6 = icmp eq i32 %5, 0
  br i1 %6, label %7, label %Associate_Fields.exit

7:                                                ; preds = %3
  %8 = getelementptr inbounds nuw i8, ptr %2, i64 26
  %9 = load i16, ptr %8, align 2
  %10 = icmp sgt i16 %9, 0
  %11 = getelementptr inbounds nuw i8, ptr %2, i64 28
  br i1 %10, label %12, label %14

12:                                               ; preds = %7
  store i16 0, ptr %11, align 4
  %13 = tail call i32 @form_driver(ptr noundef nonnull %2, i32 noundef -291056) #11
  br label %38

14:                                               ; preds = %7
  store i16 -1, ptr %11, align 4
  %15 = getelementptr inbounds nuw i8, ptr %2, i64 72
  store ptr null, ptr %15, align 8
  br label %38

Associate_Fields.exit:                            ; preds = %3
  %16 = load i16, ptr %2, align 8
  %17 = and i16 %16, 1
  %.not8.i = icmp eq i16 %17, 0
  br i1 %.not8.i, label %18, label %free_form.exit

18:                                               ; preds = %Associate_Fields.exit
  %19 = getelementptr inbounds nuw i8, ptr %2, i64 64
  %20 = load ptr, ptr %19, align 8
  %.not.i.i = icmp eq ptr %20, null
  br i1 %.not.i.i, label %Disconnect_Fields.exit.i, label %.preheader.i.i

.preheader.i.i:                                   ; preds = %18
  %21 = load ptr, ptr %20, align 8
  %.not1820.i.i = icmp eq ptr %21, null
  br i1 %.not1820.i.i, label %._crit_edge.i.i, label %.lr.ph.i.i

.lr.ph.i.i:                                       ; preds = %.preheader.i.i, %27
  %22 = phi ptr [ %29, %27 ], [ %21, %.preheader.i.i ]
  %.021.i.i = phi ptr [ %28, %27 ], [ %20, %.preheader.i.i ]
  %23 = getelementptr inbounds nuw i8, ptr %22, i64 80
  %24 = load ptr, ptr %23, align 8
  %25 = icmp eq ptr %2, %24
  br i1 %25, label %26, label %27

26:                                               ; preds = %.lr.ph.i.i
  store ptr null, ptr %23, align 8
  br label %27

27:                                               ; preds = %26, %.lr.ph.i.i
  %28 = getelementptr inbounds nuw i8, ptr %.021.i.i, i64 8
  %29 = load ptr, ptr %28, align 8
  %.not18.i.i = icmp eq ptr %29, null
  br i1 %.not18.i.i, label %._crit_edge.i.i, label %.lr.ph.i.i, !llvm.loop !5

._crit_edge.i.i:                                  ; preds = %27, %.preheader.i.i
  %30 = getelementptr inbounds nuw i8, ptr %2, i64 4
  store i16 0, ptr %30, align 4
  %31 = getelementptr inbounds nuw i8, ptr %2, i64 2
  store i16 0, ptr %31, align 2
  %32 = getelementptr inbounds nuw i8, ptr %2, i64 26
  store i16 -1, ptr %32, align 2
  %33 = getelementptr inbounds nuw i8, ptr %2, i64 24
  store i16 -1, ptr %33, align 8
  store ptr null, ptr %19, align 8
  %34 = getelementptr inbounds nuw i8, ptr %2, i64 80
  %35 = load ptr, ptr %34, align 8
  %.not19.i.i = icmp eq ptr %35, null
  br i1 %.not19.i.i, label %Disconnect_Fields.exit.thread.i, label %Disconnect_Fields.exit.thread.sink.split.i

Disconnect_Fields.exit.i:                         ; preds = %18
  %.phi.trans.insert.i = getelementptr inbounds nuw i8, ptr %2, i64 80
  %.pre.i = load ptr, ptr %.phi.trans.insert.i, align 8
  %.not9.i = icmp eq ptr %.pre.i, null
  br i1 %.not9.i, label %Disconnect_Fields.exit.thread.i, label %Disconnect_Fields.exit.thread.sink.split.i

Disconnect_Fields.exit.thread.sink.split.i:       ; preds = %Disconnect_Fields.exit.i, %._crit_edge.i.i
  %.sink.i = phi ptr [ %35, %._crit_edge.i.i ], [ %.pre.i, %Disconnect_Fields.exit.i ]
  tail call void @free(ptr noundef nonnull %.sink.i) #11
  br label %Disconnect_Fields.exit.thread.i

Disconnect_Fields.exit.thread.i:                  ; preds = %Disconnect_Fields.exit.thread.sink.split.i, %Disconnect_Fields.exit.i, %._crit_edge.i.i
  tail call void @free(ptr noundef nonnull %2) #11
  br label %free_form.exit

free_form.exit:                                   ; preds = %Associate_Fields.exit, %Disconnect_Fields.exit.thread.i
  %.sink11.i = phi i32 [ 0, %Disconnect_Fields.exit.thread.i ], [ -3, %Associate_Fields.exit ]
  %36 = tail call ptr @__errno_location() #10
  store i32 %.sink11.i, ptr %36, align 4
  br label %37

37:                                               ; preds = %._crit_edge, %free_form.exit
  %.pre-phi = phi ptr [ %.pre, %._crit_edge ], [ %36, %free_form.exit ]
  %.07.ph = phi i32 [ -1, %._crit_edge ], [ %5, %free_form.exit ]
  store i32 %.07.ph, ptr %.pre-phi, align 4
  br label %38

38:                                               ; preds = %14, %12, %37
  %.017 = phi ptr [ null, %37 ], [ %2, %12 ], [ %2, %14 ]
  ret ptr %.017
}